; Function Attrs: mustprogress nofree nounwind uwtable
define hidden void @_ZN6Assimp18ObjFileMtlImporter20getIlluminationModelERi(ptr noundef nonnull align 8 captures(none) dereferenceable(88) %0, ptr noundef nonnull writeonly align 4 captures(none) dereferenceable(4) %1) local_unnamed_addr #8 align 2 {
  %3 = getelementptr inbounds nuw i8, ptr %0, i64 32
  %.sroa.01.0.copyload = load ptr, ptr %3, align 8
  %4 = getelementptr inbounds nuw i8, ptr %0, i64 40
  %.sroa.0.0.copyload = load ptr, ptr %4, align 8
  %5 = getelementptr inbounds nuw i8, ptr %0, i64 64
  %6 = load ptr, ptr %5, align 8
  %7 = getelementptr inbounds i8, ptr %.sroa.0.0.copyload, i64 -1
  %8 = icmp eq ptr %.sroa.01.0.copyload, %.sroa.0.0.copyload
  %9 = icmp eq ptr %.sroa.01.0.copyload, %7
  %.0.i6.i.i = select i1 %8, i1 true, i1 %9
  br i1 %.0.i6.i.i, label %_ZN6Assimp11getNextWordIN9__gnu_cxx17__normal_iteratorIPcSt6vectorIcSaIcEEEEEET_S8_S8_.exit.i.preheader, label %.lr.ph.i.i

.lr.ph.i.i:                                       ; preds = %2, %_ZN6Assimp9IsLineEndIcEEbT_.exit.i.i
  %.sroa.0.07.i.i = phi ptr [ %11, %_ZN6Assimp9IsLineEndIcEEbT_.exit.i.i ], [ %.sroa.01.0.copyload, %2 ]
  %10 = load i8, ptr %.sroa.0.07.i.i, align 1
  switch i8 %10, label %_ZN6Assimp11getNextWordIN9__gnu_cxx17__normal_iteratorIPcSt6vectorIcSaIcEEEEEET_S8_S8_.exit.i.preheader [
    i8 32, label %_ZN6Assimp9IsLineEndIcEEbT_.exit.i.i
    i8 9, label %_ZN6Assimp9IsLineEndIcEEbT_.exit.i.i
  ]

_ZN6Assimp9IsLineEndIcEEbT_.exit.i.i:             ; preds = %.lr.ph.i.i, %.lr.ph.i.i
  %11 = getelementptr inbounds nuw i8, ptr %.sroa.0.07.i.i, i64 1
  %12 = icmp eq ptr %11, %.sroa.0.0.copyload
  %13 = icmp eq ptr %11, %7
  %.0.i.i.i = select i1 %12, i1 true, i1 %13
  br i1 %.0.i.i.i, label %_ZN6Assimp11getNextWordIN9__gnu_cxx17__normal_iteratorIPcSt6vectorIcSaIcEEEEEET_S8_S8_.exit.i.preheader, label %.lr.ph.i.i, !llvm.loop !11

_ZN6Assimp11getNextWordIN9__gnu_cxx17__normal_iteratorIPcSt6vectorIcSaIcEEEEEET_S8_S8_.exit.i.preheader: ; preds = %_ZN6Assimp9IsLineEndIcEEbT_.exit.i.i, %.lr.ph.i.i, %2
  %.sroa.0.0.i.ph = phi ptr [ %.sroa.01.0.copyload, %2 ], [ %11, %_ZN6Assimp9IsLineEndIcEEbT_.exit.i.i ], [ %.sroa.0.07.i.i, %.lr.ph.i.i ]
  br label %_ZN6Assimp11getNextWordIN9__gnu_cxx17__normal_iteratorIPcSt6vectorIcSaIcEEEEEET_S8_S8_.exit.i

_ZN6Assimp11getNextWordIN9__gnu_cxx17__normal_iteratorIPcSt6vectorIcSaIcEEEEEET_S8_S8_.exit.i: ; preds = %_ZN6Assimp11getNextWordIN9__gnu_cxx17__normal_iteratorIPcSt6vectorIcSaIcEEEEEET_S8_S8_.exit.i.preheader, %20
  %.sroa.0.0.i = phi ptr [ %22, %20 ], [ %.sroa.0.0.i.ph, %_ZN6Assimp11getNextWordIN9__gnu_cxx17__normal_iteratorIPcSt6vectorIcSaIcEEEEEET_S8_S8_.exit.i.preheader ]
  %.0.i = phi i64 [ %21, %20 ], [ 0, %_ZN6Assimp11getNextWordIN9__gnu_cxx17__normal_iteratorIPcSt6vectorIcSaIcEEEEEET_S8_S8_.exit.i.preheader ]
  %14 = load i8, ptr %.sroa.0.0.i, align 1
  switch i8 %14, label %_ZN6Assimp16IsSpaceOrNewLineIcEEbT_.exit.i [
    i8 32, label %_ZN6Assimp12CopyNextWordIN9__gnu_cxx17__normal_iteratorIPcSt6vectorIcSaIcEEEEEET_S8_S8_S3_m.exit
    i8 9, label %_ZN6Assimp12CopyNextWordIN9__gnu_cxx17__normal_iteratorIPcSt6vectorIcSaIcEEEEEET_S8_S8_S3_m.exit
    i8 13, label %_ZN6Assimp12CopyNextWordIN9__gnu_cxx17__normal_iteratorIPcSt6vectorIcSaIcEEEEEET_S8_S8_S3_m.exit
    i8 10, label %_ZN6Assimp12CopyNextWordIN9__gnu_cxx17__normal_iteratorIPcSt6vectorIcSaIcEEEEEET_S8_S8_S3_m.exit
    i8 0, label %_ZN6Assimp12CopyNextWordIN9__gnu_cxx17__normal_iteratorIPcSt6vectorIcSaIcEEEEEET_S8_S8_S3_m.exit
    i8 12, label %_ZN6Assimp12CopyNextWordIN9__gnu_cxx17__normal_iteratorIPcSt6vectorIcSaIcEEEEEET_S8_S8_S3_m.exit
  ]

_ZN6Assimp16IsSpaceOrNewLineIcEEbT_.exit.i:       ; preds = %_ZN6Assimp11getNextWordIN9__gnu_cxx17__normal_iteratorIPcSt6vectorIcSaIcEEEEEET_S8_S8_.exit.i
  %15 = icmp eq ptr %.sroa.0.0.i, %.sroa.0.0.copyload
  %16 = icmp eq ptr %.sroa.0.0.i, %7
  %.0.i.i = select i1 %15, i1 true, i1 %16
  br i1 %.0.i.i, label %_ZN6Assimp12CopyNextWordIN9__gnu_cxx17__normal_iteratorIPcSt6vectorIcSaIcEEEEEET_S8_S8_S3_m.exit, label %17

17:                                               ; preds = %_ZN6Assimp16IsSpaceOrNewLineIcEEbT_.exit.i
  %18 = getelementptr inbounds nuw i8, ptr %6, i64 %.0.i
  store i8 %14, ptr %18, align 1
  %19 = icmp eq i64 %.0.i, 2046
  br i1 %19, label %_ZN6Assimp12CopyNextWordIN9__gnu_cxx17__normal_iteratorIPcSt6vectorIcSaIcEEEEEET_S8_S8_S3_m.exit, label %20

20:                                               ; preds = %17
  %21 = add nuw nsw i64 %.0.i, 1
  %22 = getelementptr inbounds nuw i8, ptr %.sroa.0.0.i, i64 1
  br label %_ZN6Assimp11getNextWordIN9__gnu_cxx17__normal_iteratorIPcSt6vectorIcSaIcEEEEEET_S8_S8_.exit.i, !llvm.loop !12

_ZN6Assimp12CopyNextWordIN9__gnu_cxx17__normal_iteratorIPcSt6vectorIcSaIcEEEEEET_S8_S8_S3_m.exit: ; preds = %_ZN6Assimp11getNextWordIN9__gnu_cxx17__normal_iteratorIPcSt6vectorIcSaIcEEEEEET_S8_S8_.exit.i, %_ZN6Assimp11getNextWordIN9__gnu_cxx17__normal_iteratorIPcSt6vectorIcSaIcEEEEEET_S8_S8_.exit.i, %_ZN6Assimp11getNextWordIN9__gnu_cxx17__normal_iteratorIPcSt6vectorIcSaIcEEEEEET_S8_S8_.exit.i, %_ZN6Assimp11getNextWordIN9__gnu_cxx17__normal_iteratorIPcSt6vectorIcSaIcEEEEEET_S8_S8_.exit.i, %_ZN6Assimp11getNextWordIN9__gnu_cxx17__normal_iteratorIPcSt6vectorIcSaIcEEEEEET_S8_S8_.exit.i, %_ZN6Assimp11getNextWordIN9__gnu_cxx17__normal_iteratorIPcSt6vectorIcSaIcEEEEEET_S8_S8_.exit.i, %_ZN6Assimp16IsSpaceOrNewLineIcEEbT_.exit.i, %17
  %.1.i = phi i64 [ 2047, %17 ], [ %.0.i, %_ZN6Assimp16IsSpaceOrNewLineIcEEbT_.exit.i ], [ %.0.i, %_ZN6Assimp11getNextWordIN9__gnu_cxx17__normal_iteratorIPcSt6vectorIcSaIcEEEEEET_S8_S8_.exit.i ], [ %.0.i, %_ZN6Assimp11getNextWordIN9__gnu_cxx17__normal_iteratorIPcSt6vectorIcSaIcEEEEEET_S8_S8_.exit.i ], [ %.0.i, %_ZN6Assimp11getNextWordIN9__gnu_cxx17__normal_iteratorIPcSt6vectorIcSaIcEEEEEET_S8_S8_.exit.i ], [ %.0.i, %_ZN6Assimp11getNextWordIN9__gnu_cxx17__normal_iteratorIPcSt6vectorIcSaIcEEEEEET_S8_S8_.exit.i ], [ %.0.i, %_ZN6Assimp11getNextWordIN9__gnu_cxx17__normal_iteratorIPcSt6vectorIcSaIcEEEEEET_S8_S8_.exit.i ], [ %.0.i, %_ZN6Assimp11getNextWordIN9__gnu_cxx17__normal_iteratorIPcSt6vectorIcSaIcEEEEEET_S8_S8_.exit.i ]
  %23 = getelementptr inbounds nuw i8, ptr %6, i64 %.1.i
  store i8 0, ptr %23, align 1
  store ptr %.sroa.0.0.i, ptr %3, align 8
  %24 = load ptr, ptr %5, align 8
  %25 = tail call i64 @strtol(ptr noundef nonnull captures(none) %24, ptr noundef null, i32 noundef 10) #23
  %26 = trunc i64 %25 to i32
  store i32 %26, ptr %1, align 4
  ret void
}